	.file	"test.c"
	.intel_syntax noprefix
	.text
.Ltext0:
	.globl	foobar
	.type	foobar, @function
foobar:
.LFB0:
	.file 1 "test.c"
	.loc 1 4 0
	.cfi_startproc
	push	rbp
	.cfi_def_cfa_offset 16
	.cfi_offset 6, -16
	mov	rbp, rsp
	.cfi_def_cfa_register 6
	mov	QWORD PTR -40[rbp], rdi
	mov	QWORD PTR -48[rbp], rsi
	mov	QWORD PTR -56[rbp], rdx
	.loc 1 5 0
	mov	rax, QWORD PTR -40[rbp]
	add	rax, 2
	mov	QWORD PTR -32[rbp], rax
	.loc 1 6 0
	mov	rax, QWORD PTR -48[rbp]
	add	rax, 3
	mov	QWORD PTR -24[rbp], rax
	.loc 1 7 0
	mov	rax, QWORD PTR -56[rbp]
	add	rax, 4
	mov	QWORD PTR -16[rbp], rax
	.loc 1 8 0
	mov	rdx, QWORD PTR -32[rbp]
	mov	rax, QWORD PTR -24[rbp]
	add	rdx, rax
	mov	rax, QWORD PTR -16[rbp]
	add	rax, rdx
	mov	QWORD PTR -8[rbp], rax
	.loc 1 10 0
	mov	rax, QWORD PTR -32[rbp]
	imul	rax, QWORD PTR -24[rbp]
	imul	rax, QWORD PTR -16[rbp]
	mov	rdx, rax
	mov	rax, QWORD PTR -8[rbp]
	add	rax, rdx
	.loc 1 11 0
	pop	rbp
	.cfi_def_cfa 7, 8
	ret
	.cfi_endproc
.LFE0:
	.size	foobar, .-foobar
	.globl	main
	.type	main, @function
main:
.LFB1:
	.loc 1 14 0
	.cfi_startproc
	push	rbp
	.cfi_def_cfa_offset 16
	.cfi_offset 6, -16
	mov	rbp, rsp
	.cfi_def_cfa_register 6
	.loc 1 15 0
	mov	edx, 99
	mov	esi, 88
	mov	edi, 77
	call	foobar
	.loc 1 16 0
	pop	rbp
	.cfi_def_cfa 7, 8
	ret
	.cfi_endproc
.LFE1:
	.size	main, .-main
.Letext0:
	.section	.note.GNU-stack,"",@progbits
